target datalayout = "e-m:e-p270:32:32-p271:32:32-p272:64:64-i64:64-i128:128-f80:128-n8:16:32:64-S128"
target triple = "x86_64-pc-linux-gnu"

; Function Attrs: mustprogress nounwind uwtable
define void @_Z8MultiplyPKdS0_Pd(ptr noundef %0, ptr noundef %1, ptr noundef %2) #0 {
  %4 = alloca ptr, align 8
  %5 = alloca ptr, align 8
  %6 = alloca ptr, align 8
  store ptr %0, ptr %4, align 8
  store ptr %1, ptr %5, align 8
  store ptr %2, ptr %6, align 8
  %7 = load ptr, ptr %4, align 8
  %8 = getelementptr inbounds double, ptr %7, i64 0
  %9 = load double, ptr %8, align 8
  %10 = load ptr, ptr %5, align 8
  %11 = getelementptr inbounds double, ptr %10, i64 0
  %12 = load double, ptr %11, align 8
  %13 = load ptr, ptr %4, align 8
  %14 = getelementptr inbounds double, ptr %13, i64 1
  %15 = load double, ptr %14, align 8
  %16 = load ptr, ptr %5, align 8
  %17 = getelementptr inbounds double, ptr %16, i64 1
  %18 = load double, ptr %17, align 8
  %19 = fmul double %15, %18
  %20 = fneg double %19
  %21 = call double @llvm.fmuladd.f64(double %9, double %12, double %20)
  %22 = load ptr, ptr %6, align 8
  %23 = getelementptr inbounds double, ptr %22, i64 0
  store double %21, ptr %23, align 8
  %24 = load ptr, ptr %4, align 8
  %25 = getelementptr inbounds double, ptr %24, i64 0
  %26 = load double, ptr %25, align 8
  %27 = load ptr, ptr %5, align 8
  %28 = getelementptr inbounds double, ptr %27, i64 1
  %29 = load double, ptr %28, align 8
  %30 = load ptr, ptr %4, align 8
  %31 = getelementptr inbounds double, ptr %30, i64 1
  %32 = load double, ptr %31, align 8
  %33 = load ptr, ptr %5, align 8
  %34 = getelementptr inbounds double, ptr %33, i64 0
  %35 = load double, ptr %34, align 8
  %36 = fmul double %32, %35
  %37 = call double @llvm.fmuladd.f64(double %26, double %29, double %36)
  %38 = load ptr, ptr %6, align 8
  %39 = getelementptr inbounds double, ptr %38, i64 1
  store double %37, ptr %39, align 8
  ret void
}