; Function Attrs: mustprogress nofree norecurse nosync nounwind willreturn memory(argmem: readwrite) uwtable
define void @_Z8MultiplyPKdS0_Pd(ptr noundef readonly captures(none) %0, ptr noundef readonly captures(none) %1, ptr noundef writeonly captures(none) initializes((0, 16)) %2) local_unnamed_addr #5 {
  %4 = load double, ptr %0, align 8
  %5 = load double, ptr %1, align 8
  %6 = getelementptr inbounds nuw i8, ptr %0, i64 8
  %7 = load double, ptr %6, align 8
  %8 = getelementptr inbounds nuw i8, ptr %1, i64 8
  %9 = load double, ptr %8, align 8
  %10 = fneg double %9
  %11 = fmul double %7, %10
  %12 = tail call double @llvm.fmuladd.f64(double %4, double %5, double %11)
  store double %12, ptr %2, align 8
  %13 = load double, ptr %0, align 8
  %14 = load double, ptr %8, align 8
  %15 = load double, ptr %6, align 8
  %16 = load double, ptr %1, align 8
  %17 = fmul double %15, %16
  %18 = tail call double @llvm.fmuladd.f64(double %13, double %14, double %17)
  %19 = getelementptr inbounds nuw i8, ptr %2, i64 8
  store double %18, ptr %19, align 8
  ret void
}